; Function Attrs: nofree norecurse nosync nounwind null_pointer_is_valid sspstrong memory(argmem: read) uwtable
define ptr @ws_iana_ipv6_special_block_lookup(ptr noundef readonly captures(none) %0) local_unnamed_addr #1 {
  br label %.lr.ph.i

.lr.ph.i:                                         ; preds = %compare_ipv6_block.exit, %1
  %.01621.i = phi i64 [ %.1.i, %compare_ipv6_block.exit ], [ 0, %1 ]
  %.01720.i = phi i64 [ %.118.i, %compare_ipv6_block.exit ], [ 23, %1 ]
  %2 = add i64 %.01720.i, %.01621.i
  %3 = lshr i64 %2, 1
  %4 = mul i64 %3, 56
  %5 = getelementptr i8, ptr @__ipv6_special_block, i64 %4
  %6 = getelementptr inbounds nuw i8, ptr %5, i64 4
  %7 = getelementptr inbounds nuw i8, ptr %5, i64 20
  %8 = load i32, ptr %7, align 4
  %9 = icmp ugt i32 %8, 7
  br i1 %9, label %.lr.ph.preheader.i, label %._crit_edge.i

.lr.ph.preheader.i:                               ; preds = %.lr.ph.i
  %10 = add i32 %8, -8
  %11 = lshr i32 %10, 3
  %12 = add nuw nsw i32 %11, 1
  %13 = zext nneg i32 %11 to i64
  %14 = and i32 %8, 7
  br label %.lr.ph.i2

.lr.ph.i2:                                        ; preds = %19, %.lr.ph.preheader.i
  %indvars.iv = phi i64 [ %indvars.iv.next, %19 ], [ 0, %.lr.ph.preheader.i ]
  %15 = getelementptr [16 x i8], ptr %0, i64 0, i64 %indvars.iv
  %16 = load i8, ptr %15, align 1
  %17 = getelementptr [16 x i8], ptr %6, i64 0, i64 %indvars.iv
  %18 = load i8, ptr %17, align 1
  %.not31.i = icmp eq i8 %16, %18
  br i1 %.not31.i, label %19, label %compare_ipv6_block.exit

19:                                               ; preds = %.lr.ph.i2
  %indvars.iv.next = add nuw nsw i64 %indvars.iv, 1
  %exitcond.not.i = icmp eq i64 %indvars.iv, %13
  br i1 %exitcond.not.i, label %._crit_edge.loopexit.i, label %.lr.ph.i2, !llvm.loop !8

._crit_edge.loopexit.i:                           ; preds = %19
  %20 = zext nneg i32 %12 to i64
  br label %._crit_edge.i

._crit_edge.i:                                    ; preds = %._crit_edge.loopexit.i, %.lr.ph.i
  %.024.lcssa.i = phi i32 [ %8, %.lr.ph.i ], [ %14, %._crit_edge.loopexit.i ]
  %.0.lcssa.i = phi i64 [ 0, %.lr.ph.i ], [ %20, %._crit_edge.loopexit.i ]
  %.not.i1 = icmp eq i32 %.024.lcssa.i, 0
  br i1 %.not.i1, label %bsearch.exit, label %21

21:                                               ; preds = %._crit_edge.i
  %22 = getelementptr [16 x i8], ptr %0, i64 0, i64 %.0.lcssa.i
  %23 = load i8, ptr %22, align 1
  %24 = zext nneg i32 %.024.lcssa.i to i64
  %25 = getelementptr [9 x i8], ptr @bitmasks, i64 0, i64 %24
  %26 = load i8, ptr %25, align 1
  %27 = and i8 %26, %23
  %28 = getelementptr [16 x i8], ptr %6, i64 0, i64 %.0.lcssa.i
  %29 = load i8, ptr %28, align 1
  %.not30.i = icmp eq i8 %27, %29
  br i1 %.not30.i, label %bsearch.exit, label %compare_ipv6_block.exit

compare_ipv6_block.exit:                          ; preds = %.lr.ph.i2, %21
  %.lcssa.sink = phi i8 [ %29, %21 ], [ %18, %.lr.ph.i2 ]
  %.lcssa17.sink = phi i8 [ %27, %21 ], [ %16, %.lr.ph.i2 ]
  %30 = icmp ult i8 %.lcssa17.sink, %.lcssa.sink
  %31 = add nuw i64 %3, 1
  %.118.i = select i1 %30, i64 %3, i64 %.01720.i
  %.1.i = select i1 %30, i64 %.01621.i, i64 %31
  %32 = icmp ult i64 %.1.i, %.118.i
  br i1 %32, label %.lr.ph.i, label %bsearch.exit, !llvm.loop !6

bsearch.exit:                                     ; preds = %21, %._crit_edge.i, %compare_ipv6_block.exit
  %.0.i = phi ptr [ null, %compare_ipv6_block.exit ], [ %5, %._crit_edge.i ], [ %5, %21 ]
  ret ptr %.0.i
}